target datalayout = "e-m:e-p270:32:32-p271:32:32-p272:64:64-i64:64-i128:128-f80:128-n8:16:32:64-S128"
target triple = "x86_64-pc-linux-gnu"

%struct.strbuf = type { i64, i64, ptr }
%struct.notes_cache = type { %struct.notes_tree, ptr }
%struct.notes_tree = type { ptr, ptr, ptr, ptr, ptr, ptr, i32, i32 }
%struct.object_id = type { [32 x i8], i32 }
%struct.pretty_print_context = type { i32, i32, ptr, i32, %struct.date_mode, i8, i32, i32, ptr, ptr, ptr, ptr, ptr, i32, ptr, i8, ptr, %struct.string_list, i32 }
%struct.date_mode = type { i32, i32, ptr }
%struct.string_list = type { ptr, i64, i64, i8, ptr }

@__const.notes_cache_init.ref = private unnamed_addr constant %struct.strbuf { i64 0, i64 0, ptr @strbuf_slopbuf }, align 8
@.str = private unnamed_addr constant [14 x i8] c"refs/notes/%s\00", align 1
@the_repository = external global ptr, align 8
@__const.notes_cache_match_validity.msg = private unnamed_addr constant %struct.strbuf { i64 0, i64 0, ptr @strbuf_slopbuf }, align 8
@.str.2 = private unnamed_addr constant [3 x i8] c"%s\00", align 1

; Function Attrs: nounwind uwtable
define internal i32 @notes_cache_match_validity(ptr noundef %0, ptr noundef %1, ptr noundef %2) #0 {
  %4 = alloca i32, align 4
  %5 = alloca ptr, align 8
  %6 = alloca ptr, align 8
  %7 = alloca ptr, align 8
  %8 = alloca %struct.object_id, align 4
  %9 = alloca ptr, align 8
  %10 = alloca %struct.pretty_print_context, align 8
  %11 = alloca %struct.strbuf, align 8
  %12 = alloca i32, align 4
  %13 = alloca i32, align 4
  store ptr %0, ptr %5, align 8, !tbaa !4
  store ptr %1, ptr %6, align 8, !tbaa !11
  store ptr %2, ptr %7, align 8, !tbaa !11
  call void @llvm.lifetime.start.p0(i64 36, ptr %8) #7
  call void @llvm.lifetime.start.p0(i64 8, ptr %9) #7
  call void @llvm.lifetime.start.p0(i64 176, ptr %10) #7
  call void @llvm.lifetime.start.p0(i64 24, ptr %11) #7
  call void @llvm.memcpy.p0.p0.i64(ptr align 8 %11, ptr align 8 @__const.notes_cache_match_validity.msg, i64 24, i1 false)
  call void @llvm.lifetime.start.p0(i64 4, ptr %12) #7
  %14 = load ptr, ptr @the_repository, align 8, !tbaa !4
  %15 = call ptr @get_main_ref_store(ptr noundef %14)
  %16 = load ptr, ptr %6, align 8, !tbaa !11
  %17 = call i32 @refs_read_ref(ptr noundef %15, ptr noundef %16, ptr noundef %8)
  %18 = icmp slt i32 %17, 0
  br i1 %18, label %19, label %20

19:                                               ; preds = %3
  store i32 0, ptr %4, align 4
  store i32 1, ptr %13, align 4
  br label %37

20:                                               ; preds = %3
  %21 = load ptr, ptr %5, align 8, !tbaa !4
  %22 = call ptr @lookup_commit_reference_gently(ptr noundef %21, ptr noundef %8, i32 noundef 1)
  store ptr %22, ptr %9, align 8, !tbaa !23
  %23 = load ptr, ptr %9, align 8, !tbaa !23
  %24 = icmp ne ptr %23, null
  br i1 %24, label %26, label %25

25:                                               ; preds = %20
  store i32 0, ptr %4, align 4
  store i32 1, ptr %13, align 4
  br label %37

26:                                               ; preds = %20
  call void @llvm.memset.p0.i64(ptr align 8 %10, i8 0, i64 176, i1 false)
  %27 = load ptr, ptr %5, align 8, !tbaa !4
  %28 = load ptr, ptr %9, align 8, !tbaa !23
  call void @repo_format_commit_message(ptr noundef %27, ptr noundef %28, ptr noundef @.str.2, ptr noundef %11, ptr noundef %10)
  call void @strbuf_trim(ptr noundef %11)
  %29 = getelementptr inbounds nuw %struct.strbuf, ptr %11, i32 0, i32 2
  %30 = load ptr, ptr %29, align 8, !tbaa !20
  %31 = load ptr, ptr %7, align 8, !tbaa !11
  %32 = call i32 @strcmp(ptr noundef %30, ptr noundef %31) #8
  %33 = icmp ne i32 %32, 0
  %34 = xor i1 %33, true
  %35 = zext i1 %34 to i32
  store i32 %35, ptr %12, align 4, !tbaa !13
  call void @strbuf_release(ptr noundef %11)
  %36 = load i32, ptr %12, align 4, !tbaa !13
  store i32 %36, ptr %4, align 4
  store i32 1, ptr %13, align 4
  br label %37

37:                                               ; preds = %26, %25, %19
  call void @llvm.lifetime.end.p0(i64 4, ptr %12) #7
  call void @llvm.lifetime.end.p0(i64 24, ptr %11) #7
  call void @llvm.lifetime.end.p0(i64 176, ptr %10) #7
  call void @llvm.lifetime.end.p0(i64 8, ptr %9) #7
  call void @llvm.lifetime.end.p0(i64 36, ptr %8) #7
  %38 = load i32, ptr %4, align 4
  ret i32 %38
}

; Function Attrs: nounwind uwtable
define dso_local void @notes_cache_init(ptr noundef %0, ptr noundef %1, ptr noundef %2, ptr noundef %3) #0 {
  %5 = alloca ptr, align 8
  %6 = alloca ptr, align 8
  %7 = alloca ptr, align 8
  %8 = alloca ptr, align 8
  %9 = alloca %struct.strbuf, align 8
  %10 = alloca i32, align 4
  store ptr %0, ptr %5, align 8, !tbaa !4
  store ptr %1, ptr %6, align 8, !tbaa !9
  store ptr %2, ptr %7, align 8, !tbaa !11
  store ptr %3, ptr %8, align 8, !tbaa !11
  call void @llvm.lifetime.start.p0(i64 24, ptr %9) #7
  call void @llvm.memcpy.p0.p0.i64(ptr align 8 %9, ptr align 8 @__const.notes_cache_init.ref, i64 24, i1 false)
  call void @llvm.lifetime.start.p0(i64 4, ptr %10) #7
  store i32 2, ptr %10, align 4, !tbaa !13
  %11 = load ptr, ptr %6, align 8, !tbaa !9
  call void @llvm.memset.p0.i64(ptr align 8 %11, i8 0, i64 64, i1 false)
  %12 = load ptr, ptr %8, align 8, !tbaa !11
  %13 = call ptr @xstrdup(ptr noundef %12)
  %14 = load ptr, ptr %6, align 8, !tbaa !9
  %15 = getelementptr inbounds nuw %struct.notes_cache, ptr %14, i32 0, i32 1
  store ptr %13, ptr %15, align 8, !tbaa !15
  %16 = load ptr, ptr %7, align 8, !tbaa !11
  call void (ptr, ptr, ...) @strbuf_addf(ptr noundef %9, ptr noundef @.str, ptr noundef %16)
  %17 = load ptr, ptr %5, align 8, !tbaa !4
  %18 = getelementptr inbounds nuw %struct.strbuf, ptr %9, i32 0, i32 2
  %19 = load ptr, ptr %18, align 8, !tbaa !20
  %20 = load ptr, ptr %8, align 8, !tbaa !11
  %21 = call i32 @notes_cache_match_validity(ptr noundef %17, ptr noundef %19, ptr noundef %20)
  %22 = icmp ne i32 %21, 0
  br i1 %22, label %26, label %23

23:                                               ; preds = %4
  %24 = load i32, ptr %10, align 4, !tbaa !13
  %25 = or i32 %24, 1
  store i32 %25, ptr %10, align 4, !tbaa !13
  br label %26

26:                                               ; preds = %23, %4
  %27 = load ptr, ptr %6, align 8, !tbaa !9
  %28 = getelementptr inbounds nuw %struct.notes_cache, ptr %27, i32 0, i32 0
  %29 = getelementptr inbounds nuw %struct.strbuf, ptr %9, i32 0, i32 2
  %30 = load ptr, ptr %29, align 8, !tbaa !20
  %31 = load i32, ptr %10, align 4, !tbaa !13
  call void @init_notes(ptr noundef %28, ptr noundef %30, ptr noundef @combine_notes_overwrite, i32 noundef %31)
  call void @strbuf_release(ptr noundef %9)
  call void @llvm.lifetime.end.p0(i64 4, ptr %10) #7
  call void @llvm.lifetime.end.p0(i64 24, ptr %9) #7
  ret void
}