; Function Attrs: nounwind uwtable
define dso_local void @notes_cache_init(ptr noundef %0, ptr noundef initializes((0, 64)) %1, ptr noundef %2, ptr noundef %3) local_unnamed_addr #0 {
  %5 = alloca %struct.object_id, align 4
  %6 = alloca %struct.pretty_print_context, align 8
  %7 = alloca %struct.strbuf, align 8
  %8 = alloca %struct.strbuf, align 8
  call void @llvm.lifetime.start.p0(i64 24, ptr nonnull %8) #6
  call void @llvm.memcpy.p0.p0.i64(ptr noundef nonnull align 8 dereferenceable(24) %8, ptr noundef nonnull align 8 dereferenceable(24) @__const.notes_cache_match_validity.msg, i64 24, i1 false)
  tail call void @llvm.memset.p0.i64(ptr noundef nonnull align 8 dereferenceable(64) %1, i8 0, i64 64, i1 false)
  %9 = tail call ptr @xstrdup(ptr noundef %3) #6
  %10 = getelementptr inbounds nuw i8, ptr %1, i64 56
  store ptr %9, ptr %10, align 8, !tbaa !4
  call void (ptr, ptr, ...) @strbuf_addf(ptr noundef nonnull %8, ptr noundef nonnull @.str, ptr noundef %2) #6
  %11 = getelementptr inbounds nuw i8, ptr %8, i64 16
  %12 = load ptr, ptr %11, align 8, !tbaa !14
  call void @llvm.lifetime.start.p0(i64 36, ptr nonnull %5) #6
  call void @llvm.lifetime.start.p0(i64 176, ptr nonnull %6) #6
  call void @llvm.lifetime.start.p0(i64 24, ptr nonnull %7) #6
  call void @llvm.memcpy.p0.p0.i64(ptr noundef nonnull align 8 dereferenceable(24) %7, ptr noundef nonnull align 8 dereferenceable(24) @__const.notes_cache_match_validity.msg, i64 24, i1 false)
  %13 = load ptr, ptr @the_repository, align 8, !tbaa !17
  %14 = call ptr @get_main_ref_store(ptr noundef %13) #6
  %15 = call i32 @refs_read_ref(ptr noundef %14, ptr noundef %12, ptr noundef nonnull %5) #6
  %16 = icmp slt i32 %15, 0
  br i1 %16, label %notes_cache_match_validity.exit.thread, label %17

17:                                               ; preds = %4
  %18 = call ptr @lookup_commit_reference_gently(ptr noundef %0, ptr noundef nonnull %5, i32 noundef 1) #6
  %.not.i = icmp eq ptr %18, null
  br i1 %.not.i, label %notes_cache_match_validity.exit.thread, label %notes_cache_match_validity.exit

notes_cache_match_validity.exit.thread:           ; preds = %4, %17
  call void @llvm.lifetime.end.p0(i64 24, ptr nonnull %7) #6
  call void @llvm.lifetime.end.p0(i64 176, ptr nonnull %6) #6
  call void @llvm.lifetime.end.p0(i64 36, ptr nonnull %5) #6
  br label %22

notes_cache_match_validity.exit:                  ; preds = %17
  call void @llvm.memset.p0.i64(ptr noundef nonnull align 8 dereferenceable(176) %6, i8 0, i64 176, i1 false)
  call void @repo_format_commit_message(ptr noundef %0, ptr noundef nonnull %18, ptr noundef nonnull @.str.2, ptr noundef nonnull %7, ptr noundef nonnull %6) #6
  call void @strbuf_trim(ptr noundef nonnull %7) #6
  %19 = getelementptr inbounds nuw i8, ptr %7, i64 16
  %20 = load ptr, ptr %19, align 8, !tbaa !14
  %21 = call i32 @strcmp(ptr noundef nonnull dereferenceable(1) %20, ptr noundef nonnull readonly dereferenceable(1) %3) #7
  %.fr = freeze i32 %21
  %.not8.i.not = icmp eq i32 %.fr, 0
  call void @strbuf_release(ptr noundef nonnull %7) #6
  call void @llvm.lifetime.end.p0(i64 24, ptr nonnull %7) #6
  call void @llvm.lifetime.end.p0(i64 176, ptr nonnull %6) #6
  call void @llvm.lifetime.end.p0(i64 36, ptr nonnull %5) #6
  br i1 %.not8.i.not, label %23, label %22

22:                                               ; preds = %notes_cache_match_validity.exit.thread, %notes_cache_match_validity.exit
  br label %23

23:                                               ; preds = %notes_cache_match_validity.exit, %22
  %24 = phi i32 [ 3, %22 ], [ 2, %notes_cache_match_validity.exit ]
  %25 = load ptr, ptr %11, align 8, !tbaa !14
  call void @init_notes(ptr noundef nonnull %1, ptr noundef %25, ptr noundef nonnull @combine_notes_overwrite, i32 noundef %24) #6
  call void @strbuf_release(ptr noundef nonnull %8) #6
  call void @llvm.lifetime.end.p0(i64 24, ptr nonnull %8) #6
  ret void
}